target datalayout = "e-m:e-p270:32:32-p271:32:32-p272:64:64-i64:64-i128:128-f80:128-n8:16:32:64-S128"
target triple = "x86_64-pc-linux-gnu"

%struct.StatusPrinter = type { %struct.Status, ptr, i32, i32, i32, i32, i64, %struct.LinePrinter, ptr, %"struct.StatusPrinter::SlidingRateInfo" }
%struct.Status = type { ptr }
%struct.LinePrinter = type { i8, i8, i8, i8, %"class.std::__cxx11::basic_string", i32, %"class.std::__cxx11::basic_string" }
%"class.std::__cxx11::basic_string" = type { %"struct.std::__cxx11::basic_string<char>::_Alloc_hider", i64, %union.anon }
%"struct.std::__cxx11::basic_string<char>::_Alloc_hider" = type { ptr }
%union.anon = type { i64, [8 x i8] }
%"struct.StatusPrinter::SlidingRateInfo" = type <{ double, i64, %"class.std::queue", i32, [4 x i8] }>
%"class.std::queue" = type { %"class.std::deque" }
%"class.std::deque" = type { %"class.std::_Deque_base" }
%"class.std::_Deque_base" = type { %"struct.std::_Deque_base<double, std::allocator<double>>::_Deque_impl" }
%"struct.std::_Deque_base<double, std::allocator<double>>::_Deque_impl" = type { %"struct.std::_Deque_base<double, std::allocator<double>>::_Deque_impl_data" }
%"struct.std::_Deque_base<double, std::allocator<double>>::_Deque_impl_data" = type { ptr, i64, %"struct.std::_Deque_iterator", %"struct.std::_Deque_iterator" }
%"struct.std::_Deque_iterator" = type { ptr, ptr, ptr, ptr }

@.str.7 = private unnamed_addr constant [3 x i8] c"%d\00", align 1
@.str.8 = private unnamed_addr constant [5 x i8] c"%.1f\00", align 1
@.str.9 = private unnamed_addr constant [6 x i8] c"%3i%%\00", align 1
@.str.10 = private unnamed_addr constant [5 x i8] c"%.3f\00", align 1
@.str.11 = private unnamed_addr constant [44 x i8] c"unknown placeholder '%%%c' in $NINJA_STATUS\00", align 1
@.str.16 = private unnamed_addr constant [2 x i8] c"?\00", align 1

; Function Attrs: mustprogress nounwind uwtable
define linkonce_odr dso_local noundef double @_ZN13StatusPrinter15SlidingRateInfo4rateEv(ptr noundef nonnull align 8 dereferenceable(100) %0) #1 comdat align 2 {
  %2 = alloca ptr, align 8
  store ptr %0, ptr %2, align 8
  %3 = load ptr, ptr %2, align 8
  %4 = getelementptr inbounds %"struct.StatusPrinter::SlidingRateInfo", ptr %3, i32 0, i32 0
  %5 = load double, ptr %4, align 8
  ret double %5
}

; Function Attrs: mustprogress nounwind uwtable
define linkonce_odr dso_local void @_ZNK13StatusPrinter12SnprintfRateILm32EEEvdRAT__cPKc(ptr noundef nonnull align 8 dereferenceable(232) %0, double noundef %1, ptr noundef nonnull align 1 dereferenceable(32) %2, ptr noundef %3) #1 comdat align 2 {
  %5 = alloca ptr, align 8
  %6 = alloca double, align 8
  %7 = alloca ptr, align 8
  %8 = alloca ptr, align 8
  store ptr %0, ptr %5, align 8
  store double %1, ptr %6, align 8
  store ptr %2, ptr %7, align 8
  store ptr %3, ptr %8, align 8
  %9 = load double, ptr %6, align 8
  %10 = fcmp oeq double %9, -1.000000e+00
  br i1 %10, label %11, label %15

11:                                               ; preds = %4
  %12 = load ptr, ptr %7, align 8
  %13 = getelementptr inbounds [32 x i8], ptr %12, i64 0, i64 0
  %14 = call i32 (ptr, i64, ptr, ...) @snprintf(ptr noundef %13, i64 noundef 32, ptr noundef @.str.16) #12
  br label %21

15:                                               ; preds = %4
  %16 = load ptr, ptr %7, align 8
  %17 = getelementptr inbounds [32 x i8], ptr %16, i64 0, i64 0
  %18 = load ptr, ptr %8, align 8
  %19 = load double, ptr %6, align 8
  %20 = call i32 (ptr, i64, ptr, ...) @snprintf(ptr noundef %17, i64 noundef 32, ptr noundef %18, double noundef %19) #12
  br label %21

21:                                               ; preds = %15, %11
  ret void
}

; Function Attrs: mustprogress uwtable
define dso_local void @_ZNK13StatusPrinter20FormatProgressStatusB5cxx11EPKcl(ptr dead_on_unwind noalias writable sret(%"class.std::__cxx11::basic_string") align 8 %0, ptr noundef nonnull align 8 dereferenceable(232) %1, ptr noundef %2, i64 noundef %3) #0 align 2 personality ptr @__gxx_personality_v0 {
  %5 = alloca ptr, align 8
  %6 = alloca ptr, align 8
  %7 = alloca ptr, align 8
  %8 = alloca i64, align 8
  %9 = alloca %"class.std::__cxx11::basic_string", align 8
  %10 = alloca [32 x i8], align 16
  %11 = alloca ptr, align 8
  %12 = alloca ptr, align 8
  %13 = alloca i32, align 4
  %14 = alloca i32, align 4
  store ptr %0, ptr %5, align 8
  store ptr %1, ptr %6, align 8
  store ptr %2, ptr %7, align 8
  store i64 %3, ptr %8, align 8
  %15 = load ptr, ptr %6, align 8
  call void @_ZNSt7__cxx1112basic_stringIcSt11char_traitsIcESaIcEEC1Ev(ptr noundef nonnull align 8 dereferenceable(32) %9) #12
  %16 = load ptr, ptr %7, align 8
  store ptr %16, ptr %11, align 8
  br label %17

17:                                               ; preds = %143, %4
  %18 = load ptr, ptr %11, align 8
  %19 = load i8, ptr %18, align 1
  %20 = sext i8 %19 to i32
  %21 = icmp ne i32 %20, 0
  br i1 %21, label %22, label %146

22:                                               ; preds = %17
  %23 = load ptr, ptr %11, align 8
  %24 = load i8, ptr %23, align 1
  %25 = sext i8 %24 to i32
  %26 = icmp eq i32 %25, 37
  br i1 %26, label %27, label %138

27:                                               ; preds = %22
  %28 = load ptr, ptr %11, align 8
  %29 = getelementptr inbounds i8, ptr %28, i32 1
  store ptr %29, ptr %11, align 8
  %30 = load ptr, ptr %11, align 8
  %31 = load i8, ptr %30, align 1
  %32 = sext i8 %31 to i32
  switch i32 %32, label %132 [
    i32 37, label %33
    i32 115, label %39
    i32 116, label %47
    i32 114, label %55
    i32 117, label %63
    i32 102, label %74
    i32 111, label %82
    i32 99, label %95
    i32 112, label %109
    i32 101, label %122
  ]

33:                                               ; preds = %27
  invoke void @_ZNSt7__cxx1112basic_stringIcSt11char_traitsIcESaIcEE9push_backEc(ptr noundef nonnull align 8 dereferenceable(32) %9, i8 noundef signext 37)
          to label %34 unwind label %35

34:                                               ; preds = %33
  br label %137

35:                                               ; preds = %138, %132, %122, %109, %105, %104, %101, %95, %91, %82, %74, %63, %55, %47, %39, %33
  %36 = landingpad { ptr, i32 }
          cleanup
  %37 = extractvalue { ptr, i32 } %36, 0
  store ptr %37, ptr %12, align 8
  %38 = extractvalue { ptr, i32 } %36, 1
  store i32 %38, ptr %13, align 4
  call void @_ZNSt7__cxx1112basic_stringIcSt11char_traitsIcESaIcEED1Ev(ptr noundef nonnull align 8 dereferenceable(32) %9) #12
  br label %147

39:                                               ; preds = %27
  %40 = getelementptr inbounds [32 x i8], ptr %10, i64 0, i64 0
  %41 = getelementptr inbounds %struct.StatusPrinter, ptr %15, i32 0, i32 2
  %42 = load i32, ptr %41, align 8
  %43 = call i32 (ptr, i64, ptr, ...) @snprintf(ptr noundef %40, i64 noundef 32, ptr noundef @.str.7, i32 noundef %42) #12
  %44 = getelementptr inbounds [32 x i8], ptr %10, i64 0, i64 0
  %45 = invoke noundef nonnull align 8 dereferenceable(32) ptr @_ZNSt7__cxx1112basic_stringIcSt11char_traitsIcESaIcEEpLEPKc(ptr noundef nonnull align 8 dereferenceable(32) %9, ptr noundef %44)
          to label %46 unwind label %35

46:                                               ; preds = %39
  br label %137

47:                                               ; preds = %27
  %48 = getelementptr inbounds [32 x i8], ptr %10, i64 0, i64 0
  %49 = getelementptr inbounds %struct.StatusPrinter, ptr %15, i32 0, i32 4
  %50 = load i32, ptr %49, align 8
  %51 = call i32 (ptr, i64, ptr, ...) @snprintf(ptr noundef %48, i64 noundef 32, ptr noundef @.str.7, i32 noundef %50) #12
  %52 = getelementptr inbounds [32 x i8], ptr %10, i64 0, i64 0
  %53 = invoke noundef nonnull align 8 dereferenceable(32) ptr @_ZNSt7__cxx1112basic_stringIcSt11char_traitsIcESaIcEEpLEPKc(ptr noundef nonnull align 8 dereferenceable(32) %9, ptr noundef %52)
          to label %54 unwind label %35

54:                                               ; preds = %47
  br label %137

55:                                               ; preds = %27
  %56 = getelementptr inbounds [32 x i8], ptr %10, i64 0, i64 0
  %57 = getelementptr inbounds %struct.StatusPrinter, ptr %15, i32 0, i32 5
  %58 = load i32, ptr %57, align 4
  %59 = call i32 (ptr, i64, ptr, ...) @snprintf(ptr noundef %56, i64 noundef 32, ptr noundef @.str.7, i32 noundef %58) #12
  %60 = getelementptr inbounds [32 x i8], ptr %10, i64 0, i64 0
  %61 = invoke noundef nonnull align 8 dereferenceable(32) ptr @_ZNSt7__cxx1112basic_stringIcSt11char_traitsIcESaIcEEpLEPKc(ptr noundef nonnull align 8 dereferenceable(32) %9, ptr noundef %60)
          to label %62 unwind label %35

62:                                               ; preds = %55
  br label %137

63:                                               ; preds = %27
  %64 = getelementptr inbounds [32 x i8], ptr %10, i64 0, i64 0
  %65 = getelementptr inbounds %struct.StatusPrinter, ptr %15, i32 0, i32 4
  %66 = load i32, ptr %65, align 8
  %67 = getelementptr inbounds %struct.StatusPrinter, ptr %15, i32 0, i32 2
  %68 = load i32, ptr %67, align 8
  %69 = sub nsw i32 %66, %68
  %70 = call i32 (ptr, i64, ptr, ...) @snprintf(ptr noundef %64, i64 noundef 32, ptr noundef @.str.7, i32 noundef %69) #12
  %71 = getelementptr inbounds [32 x i8], ptr %10, i64 0, i64 0
  %72 = invoke noundef nonnull align 8 dereferenceable(32) ptr @_ZNSt7__cxx1112basic_stringIcSt11char_traitsIcESaIcEEpLEPKc(ptr noundef nonnull align 8 dereferenceable(32) %9, ptr noundef %71)
          to label %73 unwind label %35

73:                                               ; preds = %63
  br label %137

74:                                               ; preds = %27
  %75 = getelementptr inbounds [32 x i8], ptr %10, i64 0, i64 0
  %76 = getelementptr inbounds %struct.StatusPrinter, ptr %15, i32 0, i32 3
  %77 = load i32, ptr %76, align 4
  %78 = call i32 (ptr, i64, ptr, ...) @snprintf(ptr noundef %75, i64 noundef 32, ptr noundef @.str.7, i32 noundef %77) #12
  %79 = getelementptr inbounds [32 x i8], ptr %10, i64 0, i64 0
  %80 = invoke noundef nonnull align 8 dereferenceable(32) ptr @_ZNSt7__cxx1112basic_stringIcSt11char_traitsIcESaIcEEpLEPKc(ptr noundef nonnull align 8 dereferenceable(32) %9, ptr noundef %79)
          to label %81 unwind label %35

81:                                               ; preds = %74
  br label %137

82:                                               ; preds = %27
  %83 = getelementptr inbounds %struct.StatusPrinter, ptr %15, i32 0, i32 3
  %84 = load i32, ptr %83, align 4
  %85 = sitofp i32 %84 to double
  %86 = getelementptr inbounds %struct.StatusPrinter, ptr %15, i32 0, i32 6
  %87 = load i64, ptr %86, align 8
  %88 = sitofp i64 %87 to double
  %89 = fdiv double %88, 1.000000e+03
  %90 = fdiv double %85, %89
  invoke void @_ZNK13StatusPrinter12SnprintfRateILm32EEEvdRAT__cPKc(ptr noundef nonnull align 8 dereferenceable(232) %15, double noundef %90, ptr noundef nonnull align 1 dereferenceable(32) %10, ptr noundef @.str.8)
          to label %91 unwind label %35

91:                                               ; preds = %82
  %92 = getelementptr inbounds [32 x i8], ptr %10, i64 0, i64 0
  %93 = invoke noundef nonnull align 8 dereferenceable(32) ptr @_ZNSt7__cxx1112basic_stringIcSt11char_traitsIcESaIcEEpLEPKc(ptr noundef nonnull align 8 dereferenceable(32) %9, ptr noundef %92)
          to label %94 unwind label %35

94:                                               ; preds = %91
  br label %137

95:                                               ; preds = %27
  %96 = getelementptr inbounds %struct.StatusPrinter, ptr %15, i32 0, i32 9
  %97 = getelementptr inbounds %struct.StatusPrinter, ptr %15, i32 0, i32 3
  %98 = load i32, ptr %97, align 4
  %99 = getelementptr inbounds %struct.StatusPrinter, ptr %15, i32 0, i32 6
  %100 = load i64, ptr %99, align 8
  invoke void @_ZN13StatusPrinter15SlidingRateInfo10UpdateRateEil(ptr noundef nonnull align 8 dereferenceable(100) %96, i32 noundef %98, i64 noundef %100)
          to label %101 unwind label %35

101:                                              ; preds = %95
  %102 = getelementptr inbounds %struct.StatusPrinter, ptr %15, i32 0, i32 9
  %103 = invoke noundef double @_ZN13StatusPrinter15SlidingRateInfo4rateEv(ptr noundef nonnull align 8 dereferenceable(100) %102)
          to label %104 unwind label %35

104:                                              ; preds = %101
  invoke void @_ZNK13StatusPrinter12SnprintfRateILm32EEEvdRAT__cPKc(ptr noundef nonnull align 8 dereferenceable(232) %15, double noundef %103, ptr noundef nonnull align 1 dereferenceable(32) %10, ptr noundef @.str.8)
          to label %105 unwind label %35

105:                                              ; preds = %104
  %106 = getelementptr inbounds [32 x i8], ptr %10, i64 0, i64 0
  %107 = invoke noundef nonnull align 8 dereferenceable(32) ptr @_ZNSt7__cxx1112basic_stringIcSt11char_traitsIcESaIcEEpLEPKc(ptr noundef nonnull align 8 dereferenceable(32) %9, ptr noundef %106)
          to label %108 unwind label %35

108:                                              ; preds = %105
  br label %137

109:                                              ; preds = %27
  %110 = getelementptr inbounds %struct.StatusPrinter, ptr %15, i32 0, i32 3
  %111 = load i32, ptr %110, align 4
  %112 = mul nsw i32 100, %111
  %113 = getelementptr inbounds %struct.StatusPrinter, ptr %15, i32 0, i32 4
  %114 = load i32, ptr %113, align 8
  %115 = sdiv i32 %112, %114
  store i32 %115, ptr %14, align 4
  %116 = getelementptr inbounds [32 x i8], ptr %10, i64 0, i64 0
  %117 = load i32, ptr %14, align 4
  %118 = call i32 (ptr, i64, ptr, ...) @snprintf(ptr noundef %116, i64 noundef 32, ptr noundef @.str.9, i32 noundef %117) #12
  %119 = getelementptr inbounds [32 x i8], ptr %10, i64 0, i64 0
  %120 = invoke noundef nonnull align 8 dereferenceable(32) ptr @_ZNSt7__cxx1112basic_stringIcSt11char_traitsIcESaIcEEpLEPKc(ptr noundef nonnull align 8 dereferenceable(32) %9, ptr noundef %119)
          to label %121 unwind label %35

121:                                              ; preds = %109
  br label %137

122:                                              ; preds = %27
  %123 = getelementptr inbounds [32 x i8], ptr %10, i64 0, i64 0
  %124 = getelementptr inbounds %struct.StatusPrinter, ptr %15, i32 0, i32 6
  %125 = load i64, ptr %124, align 8
  %126 = sitofp i64 %125 to double
  %127 = fdiv double %126, 1.000000e+03
  %128 = call i32 (ptr, i64, ptr, ...) @snprintf(ptr noundef %123, i64 noundef 32, ptr noundef @.str.10, double noundef %127) #12
  %129 = getelementptr inbounds [32 x i8], ptr %10, i64 0, i64 0
  %130 = invoke noundef nonnull align 8 dereferenceable(32) ptr @_ZNSt7__cxx1112basic_stringIcSt11char_traitsIcESaIcEEpLEPKc(ptr noundef nonnull align 8 dereferenceable(32) %9, ptr noundef %129)
          to label %131 unwind label %35

131:                                              ; preds = %122
  br label %137

132:                                              ; preds = %27
  %133 = load ptr, ptr %11, align 8
  %134 = load i8, ptr %133, align 1
  %135 = sext i8 %134 to i32
  invoke void (ptr, ...) @_Z5FatalPKcz(ptr noundef @.str.11, i32 noundef %135) #13
          to label %136 unwind label %35

136:                                              ; preds = %132
  unreachable

137:                                              ; preds = %131, %121, %108, %94, %81, %73, %62, %54, %46, %34
  br label %142

138:                                              ; preds = %22
  %139 = load ptr, ptr %11, align 8
  %140 = load i8, ptr %139, align 1
  invoke void @_ZNSt7__cxx1112basic_stringIcSt11char_traitsIcESaIcEE9push_backEc(ptr noundef nonnull align 8 dereferenceable(32) %9, i8 noundef signext %140)
          to label %141 unwind label %35

141:                                              ; preds = %138
  br label %142

142:                                              ; preds = %141, %137
  br label %143

143:                                              ; preds = %142
  %144 = load ptr, ptr %11, align 8
  %145 = getelementptr inbounds i8, ptr %144, i32 1
  store ptr %145, ptr %11, align 8
  br label %17, !llvm.loop !7

146:                                              ; preds = %17
  call void @_ZNSt7__cxx1112basic_stringIcSt11char_traitsIcESaIcEEC1EOS4_(ptr noundef nonnull align 8 dereferenceable(32) %0, ptr noundef nonnull align 8 dereferenceable(32) %9) #12
  call void @_ZNSt7__cxx1112basic_stringIcSt11char_traitsIcESaIcEED1Ev(ptr noundef nonnull align 8 dereferenceable(32) %9) #12
  ret void

147:                                              ; preds = %35
  %148 = load ptr, ptr %12, align 8
  %149 = load i32, ptr %13, align 4
  %150 = insertvalue { ptr, i32 } poison, ptr %148, 0
  %151 = insertvalue { ptr, i32 } %150, i32 %149, 1
  resume { ptr, i32 } %151
}