; Function Attrs: mustprogress uwtable
define dso_local void @_ZNK13StatusPrinter20FormatProgressStatusB5cxx11EPKcl(ptr dead_on_unwind noalias writable sret(%"class.std::__cxx11::basic_string") align 8 %0, ptr noundef nonnull align 8 dereferenceable(232) %1, ptr nocapture noundef readonly %2, i64 %3) local_unnamed_addr #0 align 2 personality ptr @__gxx_personality_v0 {
  %5 = alloca %"class.std::__cxx11::basic_string", align 8
  %6 = alloca [32 x i8], align 16
  call void @_ZNSt7__cxx1112basic_stringIcSt11char_traitsIcESaIcEEC1Ev(ptr noundef nonnull align 8 dereferenceable(32) %5) #16
  %7 = getelementptr inbounds i8, ptr %1, i64 32
  %8 = getelementptr inbounds i8, ptr %1, i64 20
  %9 = getelementptr inbounds i8, ptr %1, i64 24
  %10 = getelementptr inbounds i8, ptr %1, i64 128
  %11 = getelementptr inbounds i8, ptr %1, i64 16
  %12 = getelementptr inbounds i8, ptr %1, i64 28
  br label %13

13:                                               ; preds = %73, %4
  %.0 = phi ptr [ %2, %4 ], [ %74, %73 ]
  %14 = load i8, ptr %.0, align 1
  switch i8 %14, label %72 [
    i8 0, label %75
    i8 37, label %15
  ]

15:                                               ; preds = %13
  %16 = getelementptr inbounds i8, ptr %.0, i64 1
  %17 = load i8, ptr %16, align 1
  switch i8 %17, label %69 [
    i8 37, label %18
    i8 115, label %20
    i8 116, label %24
    i8 114, label %27
    i8 117, label %30
    i8 102, label %35
    i8 111, label %38
    i8 99, label %49
    i8 112, label %58
    i8 101, label %64
  ]

18:                                               ; preds = %15
  invoke void @_ZNSt7__cxx1112basic_stringIcSt11char_traitsIcESaIcEE9push_backEc(ptr noundef nonnull align 8 dereferenceable(32) %5, i8 noundef signext 37)
          to label %73 unwind label %.loopexit

.loopexit:                                        ; preds = %.invoke, %18, %49, %72
  %lpad.loopexit = landingpad { ptr, i32 }
          cleanup
  br label %19

.loopexit.split-lp:                               ; preds = %69
  %lpad.loopexit.split-lp = landingpad { ptr, i32 }
          cleanup
  br label %19

19:                                               ; preds = %.loopexit.split-lp, %.loopexit
  %lpad.phi = phi { ptr, i32 } [ %lpad.loopexit, %.loopexit ], [ %lpad.loopexit.split-lp, %.loopexit.split-lp ]
  call void @_ZNSt7__cxx1112basic_stringIcSt11char_traitsIcESaIcEED1Ev(ptr noundef nonnull align 8 dereferenceable(32) %5) #16
  resume { ptr, i32 } %lpad.phi

20:                                               ; preds = %15
  %21 = load i32, ptr %11, align 8
  %22 = call i32 (ptr, i64, ptr, ...) @snprintf(ptr noundef nonnull dereferenceable(1) %6, i64 noundef 32, ptr noundef nonnull @.str.7, i32 noundef %21) #16
  br label %.invoke

.invoke:                                          ; preds = %56, %55, %47, %46, %64, %58, %35, %30, %27, %24, %20
  %23 = invoke noundef nonnull align 8 dereferenceable(32) ptr @_ZNSt7__cxx1112basic_stringIcSt11char_traitsIcESaIcEEpLEPKc(ptr noundef nonnull align 8 dereferenceable(32) %5, ptr noundef nonnull %6)
          to label %73 unwind label %.loopexit

24:                                               ; preds = %15
  %25 = load i32, ptr %9, align 8
  %26 = call i32 (ptr, i64, ptr, ...) @snprintf(ptr noundef nonnull dereferenceable(1) %6, i64 noundef 32, ptr noundef nonnull @.str.7, i32 noundef %25) #16
  br label %.invoke

27:                                               ; preds = %15
  %28 = load i32, ptr %12, align 4
  %29 = call i32 (ptr, i64, ptr, ...) @snprintf(ptr noundef nonnull dereferenceable(1) %6, i64 noundef 32, ptr noundef nonnull @.str.7, i32 noundef %28) #16
  br label %.invoke

30:                                               ; preds = %15
  %31 = load i32, ptr %9, align 8
  %32 = load i32, ptr %11, align 8
  %33 = sub nsw i32 %31, %32
  %34 = call i32 (ptr, i64, ptr, ...) @snprintf(ptr noundef nonnull dereferenceable(1) %6, i64 noundef 32, ptr noundef nonnull @.str.7, i32 noundef %33) #16
  br label %.invoke

35:                                               ; preds = %15
  %36 = load i32, ptr %8, align 4
  %37 = call i32 (ptr, i64, ptr, ...) @snprintf(ptr noundef nonnull dereferenceable(1) %6, i64 noundef 32, ptr noundef nonnull @.str.7, i32 noundef %36) #16
  br label %.invoke

38:                                               ; preds = %15
  %39 = load i32, ptr %8, align 4
  %40 = sitofp i32 %39 to double
  %41 = load i64, ptr %7, align 8
  %42 = sitofp i64 %41 to double
  %43 = fdiv double %42, 1.000000e+03
  %44 = fdiv double %40, %43
  %45 = fcmp oeq double %44, -1.000000e+00
  br i1 %45, label %46, label %47

46:                                               ; preds = %38
  store i16 63, ptr %6, align 16
  br label %.invoke

47:                                               ; preds = %38
  %48 = call i32 (ptr, i64, ptr, ...) @snprintf(ptr noundef nonnull dereferenceable(1) %6, i64 noundef 32, ptr noundef nonnull @.str.8, double noundef %44) #16
  br label %.invoke

49:                                               ; preds = %15
  %50 = load i32, ptr %8, align 4
  %51 = load i64, ptr %7, align 8
  invoke void @_ZN13StatusPrinter15SlidingRateInfo10UpdateRateEil(ptr noundef nonnull align 8 dereferenceable(100) %10, i32 noundef %50, i64 noundef %51)
          to label %52 unwind label %.loopexit

52:                                               ; preds = %49
  %53 = load double, ptr %10, align 8
  %54 = fcmp oeq double %53, -1.000000e+00
  br i1 %54, label %55, label %56

55:                                               ; preds = %52
  store i16 63, ptr %6, align 16
  br label %.invoke

56:                                               ; preds = %52
  %57 = call i32 (ptr, i64, ptr, ...) @snprintf(ptr noundef nonnull dereferenceable(1) %6, i64 noundef 32, ptr noundef nonnull @.str.8, double noundef %53) #16
  br label %.invoke

58:                                               ; preds = %15
  %59 = load i32, ptr %8, align 4
  %60 = mul nsw i32 %59, 100
  %61 = load i32, ptr %9, align 8
  %62 = sdiv i32 %60, %61
  %63 = call i32 (ptr, i64, ptr, ...) @snprintf(ptr noundef nonnull dereferenceable(1) %6, i64 noundef 32, ptr noundef nonnull @.str.9, i32 noundef %62) #16
  br label %.invoke

64:                                               ; preds = %15
  %65 = load i64, ptr %7, align 8
  %66 = sitofp i64 %65 to double
  %67 = fdiv double %66, 1.000000e+03
  %68 = call i32 (ptr, i64, ptr, ...) @snprintf(ptr noundef nonnull dereferenceable(1) %6, i64 noundef 32, ptr noundef nonnull @.str.10, double noundef %67) #16
  br label %.invoke

69:                                               ; preds = %15
  %70 = sext i8 %17 to i32
  invoke void (ptr, ...) @_Z5FatalPKcz(ptr noundef nonnull @.str.11, i32 noundef %70) #17
          to label %71 unwind label %.loopexit.split-lp

71:                                               ; preds = %69
  unreachable

72:                                               ; preds = %13
  invoke void @_ZNSt7__cxx1112basic_stringIcSt11char_traitsIcESaIcEE9push_backEc(ptr noundef nonnull align 8 dereferenceable(32) %5, i8 noundef signext %14)
          to label %73 unwind label %.loopexit

73:                                               ; preds = %.invoke, %18, %72
  %.1 = phi ptr [ %16, %18 ], [ %.0, %72 ], [ %16, %.invoke ]
  %74 = getelementptr inbounds i8, ptr %.1, i64 1
  br label %13, !llvm.loop !7

75:                                               ; preds = %13
  call void @_ZNSt7__cxx1112basic_stringIcSt11char_traitsIcESaIcEEC1EOS4_(ptr noundef nonnull align 8 dereferenceable(32) %0, ptr noundef nonnull align 8 dereferenceable(32) %5) #16
  call void @_ZNSt7__cxx1112basic_stringIcSt11char_traitsIcESaIcEED1Ev(ptr noundef nonnull align 8 dereferenceable(32) %5) #16
  ret void
}